; Function Attrs: nounwind uwtable
define noalias noundef nonnull ptr @l_Lean_Loop_forIn_loop___at___private_Lean_Meta_Tactic_Grind_EMatchTheorem_0__Lean_Meta_Grind_checkCoverage___spec__16___lambda__1(i8 noundef zeroext %0, ptr noundef %1, ptr noundef %2, ptr noundef %3, ptr readnone captures(none) %4, ptr readnone captures(none) %5, ptr readnone captures(none) %6, ptr readnone captures(none) %7, ptr readnone captures(none) %8, ptr noundef %9) local_unnamed_addr #1 {
  %11 = icmp eq i8 %0, 0
  tail call void @lean_inc_heartbeat() #9
  %12 = tail call noalias ptr @mi_malloc_small(i64 noundef 24) #9
  %13 = icmp eq ptr %12, null
  br i1 %11, label %14, label %39

14:                                               ; preds = %10
  br i1 %13, label %15, label %lean_alloc_ctor.exit

15:                                               ; preds = %14
  tail call void @lean_internal_panic_out_of_memory() #10
  unreachable

lean_alloc_ctor.exit:                             ; preds = %14
  %16 = getelementptr inbounds nuw i8, ptr %12, i64 4
  store i32 1, ptr %12, align 4, !tbaa !4
  store i32 131096, ptr %16, align 4
  %17 = getelementptr inbounds nuw i8, ptr %12, i64 8
  store ptr inttoptr (i64 1 to ptr), ptr %17, align 8, !tbaa !9
  %18 = getelementptr inbounds nuw i8, ptr %12, i64 16
  store ptr %1, ptr %18, align 8, !tbaa !9
  tail call void @lean_inc_heartbeat() #9
  %19 = tail call noalias ptr @mi_malloc_small(i64 noundef 24) #9
  %20 = icmp eq ptr %19, null
  br i1 %20, label %21, label %lean_alloc_ctor.exit41

21:                                               ; preds = %lean_alloc_ctor.exit
  tail call void @lean_internal_panic_out_of_memory() #10
  unreachable

lean_alloc_ctor.exit41:                           ; preds = %lean_alloc_ctor.exit
  %22 = getelementptr inbounds nuw i8, ptr %19, i64 4
  store i32 1, ptr %19, align 4, !tbaa !4
  store i32 131096, ptr %22, align 4
  %23 = getelementptr inbounds nuw i8, ptr %19, i64 8
  store ptr %2, ptr %23, align 8, !tbaa !9
  %24 = getelementptr inbounds nuw i8, ptr %19, i64 16
  store ptr %12, ptr %24, align 8, !tbaa !9
  tail call void @lean_inc_heartbeat() #9
  %25 = tail call noalias ptr @mi_malloc_small(i64 noundef 24) #9
  %26 = icmp eq ptr %25, null
  br i1 %26, label %27, label %lean_alloc_ctor.exit42

27:                                               ; preds = %lean_alloc_ctor.exit41
  tail call void @lean_internal_panic_out_of_memory() #10
  unreachable

lean_alloc_ctor.exit42:                           ; preds = %lean_alloc_ctor.exit41
  %28 = getelementptr inbounds nuw i8, ptr %25, i64 4
  store i32 1, ptr %25, align 4, !tbaa !4
  store i32 131096, ptr %28, align 4
  %29 = getelementptr inbounds nuw i8, ptr %25, i64 8
  store ptr %3, ptr %29, align 8, !tbaa !9
  %30 = getelementptr inbounds nuw i8, ptr %25, i64 16
  store ptr %19, ptr %30, align 8, !tbaa !9
  tail call void @lean_inc_heartbeat() #9
  %31 = tail call noalias ptr @mi_malloc_small(i64 noundef 16) #9
  %32 = icmp eq ptr %31, null
  br i1 %32, label %33, label %lean_alloc_ctor.exit43

33:                                               ; preds = %lean_alloc_ctor.exit42
  tail call void @lean_internal_panic_out_of_memory() #10
  unreachable

lean_alloc_ctor.exit43:                           ; preds = %lean_alloc_ctor.exit42
  %34 = getelementptr inbounds nuw i8, ptr %31, i64 4
  store i32 1, ptr %31, align 4, !tbaa !4
  store i32 65552, ptr %34, align 4
  %35 = getelementptr inbounds nuw i8, ptr %31, i64 8
  store ptr %25, ptr %35, align 8, !tbaa !9
  tail call void @lean_inc_heartbeat() #9
  %36 = tail call noalias ptr @mi_malloc_small(i64 noundef 24) #9
  %37 = icmp eq ptr %36, null
  br i1 %37, label %38, label %lean_alloc_ctor.exit44

38:                                               ; preds = %lean_alloc_ctor.exit43
  tail call void @lean_internal_panic_out_of_memory() #10
  unreachable

39:                                               ; preds = %10
  br i1 %13, label %40, label %lean_alloc_ctor.exit45

40:                                               ; preds = %39
  tail call void @lean_internal_panic_out_of_memory() #10
  unreachable

lean_alloc_ctor.exit45:                           ; preds = %39
  %41 = zext i8 %0 to i64
  %42 = shl nuw nsw i64 %41, 1
  %43 = or disjoint i64 %42, 1
  %44 = inttoptr i64 %43 to ptr
  %45 = getelementptr inbounds nuw i8, ptr %12, i64 4
  store i32 1, ptr %12, align 4, !tbaa !4
  store i32 131096, ptr %45, align 4
  %46 = getelementptr inbounds nuw i8, ptr %12, i64 8
  store ptr %44, ptr %46, align 8, !tbaa !9
  %47 = getelementptr inbounds nuw i8, ptr %12, i64 16
  store ptr %1, ptr %47, align 8, !tbaa !9
  tail call void @lean_inc_heartbeat() #9
  %48 = tail call noalias ptr @mi_malloc_small(i64 noundef 24) #9
  %49 = icmp eq ptr %48, null
  br i1 %49, label %50, label %lean_alloc_ctor.exit46

50:                                               ; preds = %lean_alloc_ctor.exit45
  tail call void @lean_internal_panic_out_of_memory() #10
  unreachable

lean_alloc_ctor.exit46:                           ; preds = %lean_alloc_ctor.exit45
  %51 = getelementptr inbounds nuw i8, ptr %48, i64 4
  store i32 1, ptr %48, align 4, !tbaa !4
  store i32 131096, ptr %51, align 4
  %52 = getelementptr inbounds nuw i8, ptr %48, i64 8
  store ptr %2, ptr %52, align 8, !tbaa !9
  %53 = getelementptr inbounds nuw i8, ptr %48, i64 16
  store ptr %12, ptr %53, align 8, !tbaa !9
  tail call void @lean_inc_heartbeat() #9
  %54 = tail call noalias ptr @mi_malloc_small(i64 noundef 24) #9
  %55 = icmp eq ptr %54, null
  br i1 %55, label %56, label %lean_alloc_ctor.exit47

56:                                               ; preds = %lean_alloc_ctor.exit46
  tail call void @lean_internal_panic_out_of_memory() #10
  unreachable

lean_alloc_ctor.exit47:                           ; preds = %lean_alloc_ctor.exit46
  %57 = getelementptr inbounds nuw i8, ptr %54, i64 4
  store i32 1, ptr %54, align 4, !tbaa !4
  store i32 131096, ptr %57, align 4
  %58 = getelementptr inbounds nuw i8, ptr %54, i64 8
  store ptr %3, ptr %58, align 8, !tbaa !9
  %59 = getelementptr inbounds nuw i8, ptr %54, i64 16
  store ptr %48, ptr %59, align 8, !tbaa !9
  tail call void @lean_inc_heartbeat() #9
  %60 = tail call noalias ptr @mi_malloc_small(i64 noundef 16) #9
  %61 = icmp eq ptr %60, null
  br i1 %61, label %62, label %lean_alloc_ctor.exit48

62:                                               ; preds = %lean_alloc_ctor.exit47
  tail call void @lean_internal_panic_out_of_memory() #10
  unreachable

lean_alloc_ctor.exit48:                           ; preds = %lean_alloc_ctor.exit47
  %63 = getelementptr inbounds nuw i8, ptr %60, i64 4
  store i32 1, ptr %60, align 4, !tbaa !4
  store i32 16842768, ptr %63, align 4
  %64 = getelementptr inbounds nuw i8, ptr %60, i64 8
  store ptr %54, ptr %64, align 8, !tbaa !9
  tail call void @lean_inc_heartbeat() #9
  %65 = tail call noalias ptr @mi_malloc_small(i64 noundef 24) #9
  %66 = icmp eq ptr %65, null
  br i1 %66, label %67, label %lean_alloc_ctor.exit44

67:                                               ; preds = %lean_alloc_ctor.exit48
  tail call void @lean_internal_panic_out_of_memory() #10
  unreachable

lean_alloc_ctor.exit44:                           ; preds = %lean_alloc_ctor.exit48, %lean_alloc_ctor.exit43
  %.sink55 = phi ptr [ %36, %lean_alloc_ctor.exit43 ], [ %65, %lean_alloc_ctor.exit48 ]
  %.sink = phi ptr [ %31, %lean_alloc_ctor.exit43 ], [ %60, %lean_alloc_ctor.exit48 ]
  %68 = getelementptr inbounds nuw i8, ptr %.sink55, i64 4
  store i32 1, ptr %.sink55, align 4, !tbaa !4
  store i32 131096, ptr %68, align 4
  %69 = getelementptr inbounds nuw i8, ptr %.sink55, i64 8
  store ptr %.sink, ptr %69, align 8, !tbaa !9
  %70 = getelementptr inbounds nuw i8, ptr %.sink55, i64 16
  store ptr %9, ptr %70, align 8, !tbaa !9
  ret ptr %.sink55
}